target datalayout = "e-m:e-p270:32:32-p271:32:32-p272:64:64-i64:64-i128:128-f80:128-n8:16:32:64-S128"
target triple = "x86_64-pc-linux-gnu"

; Function Attrs: nounwind sspstrong uwtable
define hidden void @FLAC__window_hamming(ptr noundef %0, i32 noundef %1) #0 {
  %3 = alloca ptr, align 8
  %4 = alloca i32, align 4
  %5 = alloca i32, align 4
  %6 = alloca i32, align 4
  store ptr %0, ptr %3, align 8, !tbaa !3
  store i32 %1, ptr %4, align 4, !tbaa !8
  call void @llvm.lifetime.start.p0(i64 4, ptr %5) #4
  %7 = load i32, ptr %4, align 4, !tbaa !8
  %8 = sub nsw i32 %7, 1
  store i32 %8, ptr %5, align 4, !tbaa !8
  call void @llvm.lifetime.start.p0(i64 4, ptr %6) #4
  store i32 0, ptr %6, align 4, !tbaa !8
  br label %9

9:                                                ; preds = %27, %2
  %10 = load i32, ptr %6, align 4, !tbaa !8
  %11 = load i32, ptr %4, align 4, !tbaa !8
  %12 = icmp slt i32 %10, %11
  br i1 %12, label %13, label %30

13:                                               ; preds = %9
  %14 = load i32, ptr %6, align 4, !tbaa !8
  %15 = sitofp i32 %14 to double
  %16 = fmul reassoc nsz arcp double 0x401921FB54442D18, %15
  %17 = load i32, ptr %5, align 4, !tbaa !8
  %18 = sitofp i32 %17 to double
  %19 = fdiv reassoc nsz arcp double %16, %18
  %20 = fptrunc reassoc nsz arcp double %19 to float
  %21 = call reassoc nsz arcp float @cosf(float noundef %20) #4, !tbaa !8
  %22 = call reassoc nsz arcp float @llvm.fmuladd.f32(float 0xBFDD70A3E0000000, float %21, float 0x3FE147AE20000000)
  %23 = load ptr, ptr %3, align 8, !tbaa !3
  %24 = load i32, ptr %6, align 4, !tbaa !8
  %25 = sext i32 %24 to i64
  %26 = getelementptr inbounds float, ptr %23, i64 %25
  store float %22, ptr %26, align 4, !tbaa !10
  br label %27

27:                                               ; preds = %13
  %28 = load i32, ptr %6, align 4, !tbaa !8
  %29 = add nsw i32 %28, 1
  store i32 %29, ptr %6, align 4, !tbaa !8
  br label %9, !llvm.loop !25

30:                                               ; preds = %9
  call void @llvm.lifetime.end.p0(i64 4, ptr %6) #4
  call void @llvm.lifetime.end.p0(i64 4, ptr %5) #4
  ret void
}