; Function Attrs: nofree nounwind sspstrong memory(write) uwtable
define hidden void @FLAC__window_hamming(ptr noundef writeonly captures(none) %0, i32 noundef %1) local_unnamed_addr #1 {
  %3 = icmp sgt i32 %1, 0
  br i1 %3, label %.lr.ph, label %._crit_edge

.lr.ph:                                           ; preds = %2
  %4 = add nsw i32 %1, -1
  %5 = uitofp nneg i32 %4 to double
  %wide.trip.count = zext nneg i32 %1 to i64
  %6 = fdiv reassoc nsz arcp double 1.000000e+00, %5
  br label %7

7:                                                ; preds = %.lr.ph, %7
  %indvars.iv = phi i64 [ 0, %.lr.ph ], [ %indvars.iv.next, %7 ]
  %8 = trunc nuw nsw i64 %indvars.iv to i32
  %9 = uitofp nneg i32 %8 to double
  %10 = fmul reassoc nsz arcp double %9, 0x401921FB54442D18
  %11 = fmul reassoc nsz arcp double %10, %6
  %12 = fptrunc reassoc nsz arcp double %11 to float
  %13 = tail call reassoc nsz arcp float @cosf(float noundef %12) #6, !tbaa !12
  %14 = tail call reassoc nsz arcp float @llvm.fmuladd.f32(float %13, float 0xBFDD70A3E0000000, float 0x3FE147AE20000000)
  %15 = getelementptr inbounds nuw float, ptr %0, i64 %indvars.iv
  store float %14, ptr %15, align 4, !tbaa !3
  %indvars.iv.next = add nuw nsw i64 %indvars.iv, 1
  %exitcond.not = icmp eq i64 %indvars.iv.next, %wide.trip.count
  br i1 %exitcond.not, label %._crit_edge, label %7, !llvm.loop !20

._crit_edge:                                      ; preds = %7, %2
  ret void
}